; Function Attrs: mustprogress nofree norecurse nosync nounwind sspstrong willreturn memory(argmem: readwrite) uwtable
define internal noundef i64 @fun_so_stateless_iso2022jp_to_eucjp(ptr readnone captures(none) %0, ptr noundef readonly captures(none) %1, i64 %2, ptr noundef writeonly captures(none) initializes((0, 2)) %3, i64 %4) #4 {
  %6 = getelementptr inbounds nuw i8, ptr %1, i64 1
  %7 = load i8, ptr %6, align 1, !tbaa !6
  store i8 %7, ptr %3, align 1, !tbaa !6
  %8 = getelementptr inbounds nuw i8, ptr %1, i64 2
  %9 = load i8, ptr %8, align 1, !tbaa !6
  %10 = getelementptr inbounds nuw i8, ptr %3, i64 1
  store i8 %9, ptr %10, align 1, !tbaa !6
  ret i64 2
}